(dp1
S'output'
p2
S"<type 'exceptions.NameError'> global name 'form' is not defined"
p3
sS'layer'
p4
S'C:\\Users\\Onkar\\Desktop\\web2py\\applications\\Image\\controllers/default.py'
p5
sS'code'
p6
S'import re\n@auth.requires_login()\ndef index():\n    if auth.user == None:\n        redirect(URL(\'user\'))\n    query=(db.image.id>0)\n    con=db(query).count()\n    if not session.counter:\n        response.flash=\'Served!\'\n        inp=session.counter = 0\n    elif (session.counter)*10>con:\n        response.flash=\'Reached the end!\'\n        inp=session.counter=con/10\n    elif session.counter<0:\n        response.flash=\'Reached the begin!\'\n        inp=session.counter=0\n    else:\n        response.flash=\'Served!\'\n        inp=session.counter\n    image = db().select(db.image.ALL, orderby=~db.image.likes)\n    return dict(images=image[inp*10:inp*10 + 10])\ndef next():\n    session.counter+=1\n    redirect(URL(\'index\'))\ndef prev():\n    session.counter-=1\n    redirect(URL(\'index\'))\n@auth.requires_login()\ndef upload():\n    db.image.user.default=auth.user.id\n    form = SQLFORM(db.image, showid=False,fields=[\'title\',\'file\',\'description\'])\n    form.vars.email=auth.user.email\n    form.vars.likes = 0\n    form.vars.author = auth.user.first_name+" "+auth.user.last_name\n    form.vars.username = auth.user.username\n    form.element(\'input[name=file]\')[\'_onchange\'] = \'readURL(image_file)\'\n    if form.process().accepted:\n        redirect(URL(\'index\'))\n    return dict(form=form)\n@auth.requires_login()\ndef show():\n    session.image=request.args(0,cast=int)\n    image=db.image(request.args(0,cast=int)) or redirect(URL(\'index\'))\n    flag = 0\n    results = db(db.like.user==auth.user.id )( db.like.like_id == image.id ).select()\n    for result in results:\n        flag = result.level\n    report_id=request.args(0,cast=int)\n    form_rep = SQLFORM(db.report)\n    db.report.report_id.default=report_id\n    db.report.report_by.default = str(auth.user.first_name) +" "+ str(auth.user.last_name)\n    db.report.report_against.default = db( db.image.id == report_id ).select().first().user.username\n    db.report.user.default = auth.user.id\n    if form.process().accepted:\n        redirect(URL(\'index\'))\n    if session.disp==1:\n        response.flash = \'You like it!\'\n    elif session.disp==0:\n        response.flash = "Already liked!"\n    return dict(image=image, flag=flag, tags = db( db.tag.tag_id == session.image ).select(), comments = db( db.post.post_id == session.image ).select(), user=db(db.auth_user).select(),results=results,form_rep=form_rep)\n\ndef profile():\n    profile_id=request.args(0,cast=int)\n    response.flash = \'profile_id\'\n    #image_upl = db().select(db.image.ALL)\n    #image_like = db().select(db.like.ALL)\n    #image_tag = db().select(db.tag.ALL)\n    #image_report = db().select(db.report.ALL)\n    #olo = db( db.image.id == 4 ).select().first()\n    #el=solo.file\n    image_upl = db( db.image.user == profile_id ).select()\n    image_like = db( db.like.user == profile_id ).select()\n    image_tag = db( db.tag.user == profile_id ).select()\n    image_report = db( db.report.user == profile_id ).select()\n    return dict(image_upl=image_upl, image_like=image_like,image_tag=image_tag, image_report=image_report, profile_id=profile_id)\n\ndef report():\n    report_id=request.args(0,cast=int)\n    form = SQLFORM(db.report)\n    db.report.report_id.default=report_id\n    db.report.report_by.default = str(auth.user.first_name) +" "+ str(auth.user.last_name)\n    db.report.report_against.default = db( db.image.id == report_id ).select().first().user.username\n    db.report.user.default = auth.user.id\n    if form.process().accepted:\n        redirect(URL(\'index\'))\n    return dict(form=form)\n\n@auth.requires_login()\ndef download():\n    return response.download(request, db)\ndef download_sup():\n    img=db.image(db.image.id==request.args(0,cast=int)).select()\n    imga=img(0)\n    redirect(URL(\'download\',args=imga.file))\n    return download()\n@auth.requires_login()\ndef my():\n    images = db().select(db.image.ALL, orderby=~db.image.likes)\n    return dict(images=images)\n@auth.requires_login()\ndef my_show():\n    image=db.image(request.args(0,cast=int)) or redirect(URL(\'index\'))\n    if auth.user.email != image.email:\n        session.counter=0\n        redirect(URL(\'index\'))\n    return dict(image=image)\n\n@auth.requires_login()\ndef edit():\n    update = db.image(request.args(0,cast=int))\n    form = SQLFORM(db.image, update, showid=False,fields=[\'title\',\'file\',\'description\',\'procedure\'])\n    if auth.user.email != update.email:\n        session.counter=0\n        redirect(URL(\'index\'))\n    if form.process().accepted:\n        redirect(URL(\'my\'))\n    return dict(form=form)\n\ndef manage():\n    grid = SQLFORM.smartgrid(db.image)\n    return dict(grid=grid)\n\n\ndef user():\n    """\n    exposes:\n    http://..../[app]/default/user/login\n    http://..../[app]/default/user/logout\n    http://..../[app]/default/user/register\n    http://..../[app]/default/user/profile\n    http://..../[app]/default/user/retrieve_password\n    http://..../[app]/default/user/change_password\n    http://..../[app]/default/user/bulk_register\n    use @auth.requires_login()\n        @auth.requires_membership(\'group name\')\n        @auth.requires_permission(\'read\',\'table name\',record_id)\n    to decorate functions that need access control\n    also notice there is http://..../[app]/appadmin/manage/auth to allow administrator to manage users\n    """\n    return dict(form=auth())\n\n"""\n@cache.action()\ndef download():\n    allows downloading of uploaded files\n    http://..../[app]/default/download/[filename]\n    return response.download(request, db)\n"""\n\ndef call():\n    """\n    exposes services. for example:\n    http://..../[app]/default/call/jsonrpc\n    decorate with @services.jsonrpc the functions to expose\n    supports xml, json, xmlrpc, jsonrpc, amfrpc, rss, csv\n    """\n    return service()\n\ndef post():\n    db.post.user.default=auth.user.id\n    db.post.author.default=auth.user.username\n    db.post.post_id.default=session.image\n    form = SQLFORM(db.post)\n    if form.accepts(request, formname=None):\n        return DIV("Message posted")\n    elif form.errors:\n        return TABLE(*[TR(k, v) for k, v in form.errors.items()])\n\ndef post_list():\n    return dict(comments = db( db.post.post_id == session.image ).select())\n\ndef tag_form():\n    db.tag.tag_id.default=session.image\n    db.tag.user.default=auth.user.id\n    return dict(form=SQLFORM(db.tag).process())\n\ndef tag_list():\n    return dict(comments = db( db.tag.tag_id == session.image ).select())\n\ndef tagging():\n    db.tag.user.default=auth.user.id\n    db.tag.tag_id.default=session.image\n    form = SQLFORM(db.tag)\n    if form.accepts(request, formname=None):\n        rows=db( db.tag.tag_id == session.image & db.tag.person == request.vars.person ).select()\n        count=0\n        for i in rows:\n            count+=1\n        if count==2:\n            db(db.like.user==auth.user.id)(db.like.like_id==nimage).delete()\n            pass\n\n            # delete the last entry\n        if count==1:\n            pass\n            # update the link\n        return DIV("Tagged")\n    elif form.errors:\n        return TABLE(*[TR(k, v) for k, v in form.errors.items()])\n    \ndef user_selector():\n    if not request.vars.comment:\n        return \'\'\n    #users = [\'January\', \'February\', \'March\', \'April\', \'May\',\n    #\'June\', \'July\', \'August\', \'September\' ,\'October\',\n    #\'November\', \'December\']\n    searchObj = re.search( r\'(@.*)\', request.vars.comment, re.M|re.I)\n    if not searchObj:\n        return \'\'\n    users = db(db.auth_user).select()\n    user_start = searchObj.group(1)[1:].capitalize()\n    selected = [m.username for m in users if m.username.capitalize().startswith(user_start)]\n    #selected = [m for m in users if m.startswith(user_start)]\n    return DIV(*[DIV(k,\n     _onclick="jQuery(\'#comment\').val(\'%s\')" % k,\n     _onmouseover="this.style.backgroundColor=\'yellow\'",\n     _onmouseout="this.style.backgroundColor=\'white\'"\n         ) for k in selected])\n\n\ndef tag_selector():\n    if not request.vars.person: return \'\'\n    #months = [\'January\', \'February\', \'March\', \'April\', \'May\',\n#\'June\', \'July\', \'August\', \'September\' ,\'October\',\n#\'November\', \'December\']\n    pattern = request.vars.person.capitalize() + \'%\'\n    selected = [row.username for row in db(db.auth_user.username.like(pattern)).select()]\n    return \'\'.join([DIV(k,\n                        _onclick="jQuery(\'#person\').val(\'%s\')" % k,\n                        _onmouseover="this.style.backgroundColor=\'yellow\'",\n                        _onmouseout="this.style.backgroundColor=\'white\'"\n    ).xml() for k in selected])\n\ndef try1():\n    session.image=request.args(0,cast=int)\n    image=db.image(request.args(0,cast=int)) or redirect(URL(\'index\'))\n    flag = 0\n    results = db(db.like.user==auth.user.id )( db.like.like_id == image.id ).select()\n    for result in results:\n        flag = result.level\n    if session.disp==1:\n        response.flash = \'You like it!\'\n    elif session.disp==0:\n        response.flash = "Already liked!"\n    return dict(image=image, flag=flag, tags = db( db.tag.tag_id == session.image ).select(), comments = db( db.post.post_id == session.image ).select(), user=db(db.auth_user).select(),results=results)\n@auth.requires_membership(\'moderator\')\ndef rep():\n    reports = db().select(db.report.ALL, orderby=~db.report.created_on)\n    return dict(reports=reports)\ndef delete():\n    image = db.image(request.args(0,cast=int))\n    return dict(image=image, tags = db( db.tag.tag_id == request.args(0,cast=int) ).select(), comments = db( db.post.post_id == request.args(0,cast=int) ).select())\n\ndef search_result():\n    return dict()\ndef search_list():\n    response.flash=\'Hola\'\n    if request.vars.option !=None and request.vars.query!=None:\n        option=request.vars.option.capitalize()\n        query=request.vars.query.capitalize()\n    else:\n        return dict(ans=None)\n    #option=\'Title\'\n    #query=\'\'\n    if option==\'Tags\':\n        pattern = query + \'%\'\n        selected = [row.tag_id for row in db(db.tag.person.like(pattern)).select()]\n        return DIV(*[ DIV(A( IMG( _width="400px", _height="200px",_src=URL(\'download\',args=db( db.image.id == k ).select().first().file)), _href=URL(\'show\',args=k)) + DIV("<-->"))for k in selected])\n    elif option == \'Uploader\':\n        pattern = query + \'%\'\n        selected = [row.id for row in db(db.image.created_by.like(pattern) | db.image.author.like(pattern) | db.image.username.like(pattern) ).select()]\n        return DIV(*[ DIV(IMG( _width="400px", _height="200px",_src=URL(\'download\',args=db( db.image.id == k ).select().first().file)) + DIV("<-->"))for k in selected])\n    elif option == \'Title\':\n        pattern = query + \'%\'\n        selected = [row.id for row in db(db.image.title.like(pattern)).select()]\n        ans=db(db.image.title.like(pattern)).select()\n        return DIV(*[ DIV(IMG( _width="400px", _height="200px",_src=URL(\'download\',args=db( db.image.id == k ).select().first().file)) + DIV("<-->"))for k in selected])\n    return dict(ans=None)\n@auth.requires_login()\ndef liking():\n    levels = request.args(0,cast=int)\n    flag = 0\n    results = db( db.like.like_id == session.image )(db.like.user==auth.user.id).select()\n    for result in results:\n        flag = result.level\n    images=db(db.image.id==session.image).select()\n    for row in images:\n        k=row.likes\n    if flag!=0:\n        db(db.like.user==auth.user.id)(db.like.like_id==session.image).delete()\n        k=k-1\n        db(db.image.id==session.image).update(likes=k)\n    else:\n        db.like.insert(user=auth.user.id, like_id=session.image,level=levels)\n        k=k+1\n        db(db.image.id==session.image).update(likes=k)\n    return DIV(\'Likes:\', k)\n\ndef disliking():\n    flag = 0\n    results = db(db.like.user==auth.user.id)(db.like.like_id==session.image).select()\n    for result in results:\n        flag = result.level\n    rows=db(db.image.id==session.image).select()\n    for row in rows:\n        k=row.likes\n    if flag==0:\n        response.flash = ("You cannot unlike this!")\n    else:\n        db(db.like.user==auth.user.id)(db.like.like_id==session.image).delete()\n        k=k-1\n        db(db.image.id==session.image).update(likes=k)\n    return DIV(\'Likes:\', k)\n\nresponse._vars=response._caller(show)\n'
p7
sS'snapshot'
p8
(dp9
S'exception'
p10
(dp11
S'__hash__'
p12
S"<method-wrapper '__hash__' of exceptions.NameError object>"
p13
sS'__setattr__'
p14
S"<method-wrapper '__setattr__' of exceptions.NameError object>"
p15
sS'__reduce_ex__'
p16
S'<built-in method __reduce_ex__ of exceptions.NameError object>'
p17
sS'__getslice__'
p18
S"<method-wrapper '__getslice__' of exceptions.NameError object>"
p19
sS'__getitem__'
p20
S"<method-wrapper '__getitem__' of exceptions.NameError object>"
p21
sS'__setstate__'
p22
S'<built-in method __setstate__ of exceptions.NameError object>'
p23
sS'__reduce__'
p24
S'<built-in method __reduce__ of exceptions.NameError object>'
p25
sS'__str__'
p26
S"<method-wrapper '__str__' of exceptions.NameError object>"
p27
sS'__format__'
p28
S'<built-in method __format__ of exceptions.NameError object>'
p29
sS'__getattribute__'
p30
S"<method-wrapper '__getattribute__' of exceptions.NameError object>"
p31
sS'__class__'
p32
S"<type 'exceptions.NameError'>"
p33
sS'__unicode__'
p34
S'<built-in method __unicode__ of exceptions.NameError object>'
p35
sS'__delattr__'
p36
S"<method-wrapper '__delattr__' of exceptions.NameError object>"
p37
sS'__subclasshook__'
p38
S'<built-in method __subclasshook__ of type object>'
p39
sS'__repr__'
p40
S"<method-wrapper '__repr__' of exceptions.NameError object>"
p41
sS'args'
p42
S'("global name \'form\' is not defined",)'
p43
sS'__dict__'
p44
S'{}'
p45
sS'__sizeof__'
p46
S'<built-in method __sizeof__ of exceptions.NameError object>'
p47
sS'__doc__'
p48
S"'Name not found globally.'"
p49
sS'__init__'
p50
S"<method-wrapper '__init__' of exceptions.NameError object>"
p51
sS'__new__'
p52
S'<built-in method __new__ of type object>'
p53
ssS'evalue'
p54
S"global name 'form' is not defined"
p55
sS'request'
p56
cgluon.html
XML_unpickle
p57
(S's\xcdV\x00\x00<div><table><tr><td style="font-weight:bold;vertical-align:top;">ajax</td><td style="vertical-align:top;">:</td><td><div>False</div></td></tr><tr><td style="font-weight:bold;vertical-align:top;">application</td><td style="vertical-align:top;">:</td><td><div>Image</div></td></tr><tr><td style="font-weight:bold;vertical-align:top;">args</td><td style="vertical-align:top;">:</td><td><div><table><tr><td><div>2</div></td></tr></table></div></td></tr><tr><td style="font-weight:bold;vertical-align:top;">cid</td><td style="vertical-align:top;">:</td><td><div>None</div></td></tr><tr><td style="font-weight:bold;vertical-align:top;">client</td><td style="vertical-align:top;">:</td><td><div>127.0.0.1</div></td></tr><tr><td style="font-weight:bold;vertical-align:top;">controller</td><td style="vertical-align:top;">:</td><td><div>default</div></td></tr><tr><td style="font-weight:bold;vertical-align:top;">cookies</td><td style="vertical-align:top;">:</td><td><div><table><tr><td style="font-weight:bold;vertical-align:top;">session_id_admin</td><td style="vertical-align:top;">:</td><td><div>127.0.0.1-c1303440-cb8b-49f8-b566-9b0f471240f7<table><tr><td style="font-weight:bold;vertical-align:top;">comment</td><td style="vertical-align:top;">:</td><td><div></div></td></tr><tr><td style="font-weight:bold;vertical-align:top;">domain</td><td style="vertical-align:top;">:</td><td><div></div></td></tr><tr><td style="font-weight:bold;vertical-align:top;">expires</td><td style="vertical-align:top;">:</td><td><div></div></td></tr><tr><td style="font-weight:bold;vertical-align:top;">httponly</td><td style="vertical-align:top;">:</td><td><div></div></td></tr><tr><td style="font-weight:bold;vertical-align:top;">max-age</td><td style="vertical-align:top;">:</td><td><div></div></td></tr><tr><td style="font-weight:bold;vertical-align:top;">path</td><td style="vertical-align:top;">:</td><td><div></div></td></tr><tr><td style="font-weight:bold;vertical-align:top;">secure</td><td style="vertical-align:top;">:</td><td><div></div></td></tr><tr><td style="font-weight:bold;vertical-align:top;">version</td><td style="vertical-align:top;">:</td><td><div></div></td></tr></table></div></td></tr><tr><td style="font-weight:bold;vertical-align:top;">session_id_image</td><td style="vertical-align:top;">:</td><td><div>127.0.0.1-9a1bd3c0-62a2-4227-a3f5-ce9dddc2691b<table><tr><td style="font-weight:bold;vertical-align:top;">comment</td><td style="vertical-align:top;">:</td><td><div></div></td></tr><tr><td style="font-weight:bold;vertical-align:top;">domain</td><td style="vertical-align:top;">:</td><td><div></div></td></tr><tr><td style="font-weight:bold;vertical-align:top;">expires</td><td style="vertical-align:top;">:</td><td><div></div></td></tr><tr><td style="font-weight:bold;vertical-align:top;">httponly</td><td style="vertical-align:top;">:</td><td><div></div></td></tr><tr><td style="font-weight:bold;vertical-align:top;">max-age</td><td style="vertical-align:top;">:</td><td><div></div></td></tr><tr><td style="font-weight:bold;vertical-align:top;">path</td><td style="vertical-align:top;">:</td><td><div></div></td></tr><tr><td style="font-weight:bold;vertical-align:top;">secure</td><td style="vertical-align:top;">:</td><td><div></div></td></tr><tr><td style="font-weight:bold;vertical-align:top;">version</td><td style="vertical-align:top;">:</td><td><div></div></td></tr></table></div></td></tr></table></div></td></tr><tr><td style="font-weight:bold;vertical-align:top;">env</td><td style="vertical-align:top;">:</td><td><div><table><tr><td style="font-weight:bold;vertical-align:top;">HTTP_ACCEPT</td><td style="vertical-align:top;">:</td><td><div>text/html,application/xhtml+xml,application/xml;q=0.9,image/webp,*/*;q=0.8</div></td></tr><tr><td style="font-weight:bold;vertical-align:top;">HTTP_ACCEPT_ENCODING</td><td style="vertical-align:top;">:</td><td><div>gzip, deflate, sdch</div></td></tr><tr><td style="font-weight:bold;vertical-align:top;">HTTP_ACCEPT_LANGUAGE</td><td style="vertical-align:top;">:</td><td><div>en-US,en;q=0.8</div></td></tr><tr><td style="font-weight:bold;vertical-align:top;">HTTP_CONNECTION</td><td style="vertical-align:top;">:</td><td><div>keep-alive</div></td></tr><tr><td style="font-weight:bold;vertical-align:top;">HTTP_COOKIE</td><td style="vertical-align:top;">:</td><td><div>session_id_admin=127.0.0.1-c1303440-cb8b-49f8-b566-9b0f471240f7; session_id_image=127.0.0.1-9a1bd3c0-62a2-4227-a3f5-ce9dddc2691b</div></td></tr><tr><td style="font-weight:bold;vertical-align:top;">HTTP_HOST</td><td style="vertical-align:top;">:</td><td><div>127.0.0.1:8000</div></td></tr><tr><td style="font-weight:bold;vertical-align:top;">HTTP_REFERER</td><td style="vertical-align:top;">:</td><td><div>http://127.0.0.1:8000/Image/default/index</div></td></tr><tr><td style="font-weight:bold;vertical-align:top;">HTTP_UPGRADE_INSECURE_REQUESTS</td><td style="vertical-align:top;">:</td><td><div>1</div></td></tr><tr><td style="font-weight:bold;vertical-align:top;">HTTP_USER_AGENT</td><td style="vertical-align:top;">:</td><td><div>Mozilla/5.0 (Windows NT 10.0; WOW64) AppleWebKit/537.36 (KHTML, like Gecko) Chrome/49.0.2623.112 Safari/537.36</div></td></tr><tr><td style="font-weight:bold;vertical-align:top;">PATH_INFO</td><td style="vertical-align:top;">:</td><td><div>/Image/default/show/2</div></td></tr><tr><td style="font-weight:bold;vertical-align:top;">QUERY_STRING</td><td style="vertical-align:top;">:</td><td><div></div></td></tr><tr><td style="font-weight:bold;vertical-align:top;">REMOTE_ADDR</td><td style="vertical-align:top;">:</td><td><div>127.0.0.1</div></td></tr><tr><td style="font-weight:bold;vertical-align:top;">REMOTE_PORT</td><td style="vertical-align:top;">:</td><td><div>49823</div></td></tr><tr><td style="font-weight:bold;vertical-align:top;">REQUEST_METHOD</td><td style="vertical-align:top;">:</td><td><div>GET</div></td></tr><tr><td style="font-weight:bold;vertical-align:top;">SCRIPT_NAME</td><td style="vertical-align:top;">:</td><td><div></div></td></tr><tr><td style="font-weight:bold;vertical-align:top;">SERVER_NAME</td><td style="vertical-align:top;">:</td><td><div>Onkar-PC</div></td></tr><tr><td style="font-weight:bold;vertical-align:top;">SERVER_PORT</td><td style="vertical-align:top;">:</td><td><div>8000</div></td></tr><tr><td style="font-weight:bold;vertical-align:top;">SERVER_PROTOCOL</td><td style="vertical-align:top;">:</td><td><div>HTTP/1.1</div></td></tr><tr><td style="font-weight:bold;vertical-align:top;">SERVER_SOFTWARE</td><td style="vertical-align:top;">:</td><td><div>Rocket 1.2.6</div></td></tr><tr><td style="font-weight:bold;vertical-align:top;">app_folders</td><td style="vertical-align:top;">:</td><td><div>set([&#x27;C:\\\\Users\\\\Onkar\\\\Desktop\\\\web2py\\\\applications\\\\admin\\\\&#x27;, &#x27;C:\\\\Users\\\\Onkar\\\\Desktop\\\\web2py\\\\applications\\\\welcome\\\\&#x27;, &#x27;C:\\\\Users\\\\Onkar\\\\Desktop\\\\web2py\\\\applications\\\\Image\\\\&#x27;])</div></td></tr><tr><td style="font-weight:bold;vertical-align:top;">applications_parent</td><td style="vertical-align:top;">:</td><td><div>C:\\Users\\Onkar\\Desktop\\web2py</div></td></tr><tr><td style="font-weight:bold;vertical-align:top;">cmd_args</td><td style="vertical-align:top;">:</td><td><div><table></table></div></td></tr><tr><td style="font-weight:bold;vertical-align:top;">cmd_options</td><td style="vertical-align:top;">:</td><td><div>&lt;Values at 0x2d11c38: {&#x27;verbose&#x27;: False, &#x27;ip&#x27;: &#x27;127.0.0.1&#x27;, &#x27;debuglevel&#x27;: 30, &#x27;with_scheduler&#x27;: False, &#x27;shutdown_timeout&#x27;: 5, &#x27;taskbar&#x27;: False, &#x27;with_coverage&#x27;: False, &#x27;pid_filename&#x27;: &#x27;httpserver.pid&#x27;, &#x27;maxthreads&#x27;: None, &#x27;softcron&#x27;: False, &#x27;server_name&#x27;: &#x27;Onkar-PC&#x27;, &#x27;bpython&#x27;: False, &#x27;nogui&#x27;: False, &#x27;port&#x27;: 8000, &#x27;print_errors&#x27;: False, &#x27;extcron&#x27;: False, &#x27;runcron&#x27;: False, &#x27;run_system_tests&#x27;: False, &#x27;test&#x27;: None, &#x27;folder&#x27;: &#x27;C:\\\\Users\\\\Onkar\\\\Desktop\\\\web2py&#x27;, &#x27;config&#x27;: &#x27;&#x27;, &#x27;minthreads&#x27;: None, &#x27;shell&#x27;: None, &#x27;run&#x27;: &#x27;&#x27;, &#x27;log_filename&#x27;: &#x27;httpserver.log&#x27;, &#x27;profiler_dir&#x27;: None, &#x27;args&#x27;: [&#x27;&#x27;], &#x27;socket_timeout&#x27;: 5, &#x27;ssl_ca_certificate&#x27;: None, &#x27;scheduler&#x27;: None, &#x27;interfaces&#x27;: None, &#x27;ssl_private_key&#x27;: &#x27;&#x27;, &#x27;gae&#x27;: None, &#x27;password&#x27;: &#x27;******&#x27;, &#x27;request_queue_size&#x27;: 5, &#x27;ssl_certificate&#x27;: &#x27;&#x27;, &#x27;cronjob&#x27;: False, &#x27;numthreads&#x27;: None, &#x27;quiet&#x27;: False, &#x27;import_models&#x27;: False, &#x27;timeout&#x27;: 10, &#x27;plain&#x27;: False, &#x27;nobanner&#x27;: False}&gt;</div></td></tr><tr><td style="font-weight:bold;vertical-align:top;">db_sessions</td><td style="vertical-align:top;">:</td><td><div>set([])</div></td></tr><tr><td style="font-weight:bold;vertical-align:top;">debugging</td><td style="vertical-align:top;">:</td><td><div>True</div></td></tr><tr><td style="font-weight:bold;vertical-align:top;">gluon_parent</td><td style="vertical-align:top;">:</td><td><div>C:\\Users\\Onkar\\Desktop\\web2py</div></td></tr><tr><td style="font-weight:bold;vertical-align:top;">http_accept</td><td style="vertical-align:top;">:</td><td><div>text/html,application/xhtml+xml,application/xml;q=0.9,image/webp,*/*;q=0.8</div></td></tr><tr><td style="font-weight:bold;vertical-align:top;">http_accept_encoding</td><td style="vertical-align:top;">:</td><td><div>gzip, deflate, sdch</div></td></tr><tr><td style="font-weight:bold;vertical-align:top;">http_accept_language</td><td style="vertical-align:top;">:</td><td><div>en-US,en;q=0.8</div></td></tr><tr><td style="font-weight:bold;vertical-align:top;">http_connection</td><td style="vertical-align:top;">:</td><td><div>keep-alive</div></td></tr><tr><td style="font-weight:bold;vertical-align:top;">http_cookie</td><td style="vertical-align:top;">:</td><td><div>session_id_admin=127.0.0.1-c1303440-cb8b-49f8-b566-9b0f471240f7; session_id_image=127.0.0.1-9a1bd3c0-62a2-4227-a3f5-ce9dddc2691b</div></td></tr><tr><td style="font-weight:bold;vertical-align:top;">http_host</td><td style="vertical-align:top;">:</td><td><div>127.0.0.1:8000</div></td></tr><tr><td style="font-weight:bold;vertical-align:top;">http_referer</td><td style="vertical-align:top;">:</td><td><div>http://127.0.0.1:8000/Image/default/index</div></td></tr><tr><td style="font-weight:bold;vertical-align:top;">http_upgrade_insecure_requests</td><td style="vertical-align:top;">:</td><td><div>1</div></td></tr><tr><td style="font-weight:bold;vertical-align:top;">http_user_agent</td><td style="vertical-align:top;">:</td><td><div>Mozilla/5.0 (Windows NT 10.0; WOW64) AppleWebKit/537.36 (KHTML, like Gecko) Chrome/49.0.2623.112 Safari/537.36</div></td></tr><tr><td style="font-weight:bold;vertical-align:top;">is_jython</td><td style="vertical-align:top;">:</td><td><div>False</div></td></tr><tr><td style="font-weight:bold;vertical-align:top;">is_pypy</td><td style="vertical-align:top;">:</td><td><div>False</div></td></tr><tr><td style="font-weight:bold;vertical-align:top;">is_source</td><td style="vertical-align:top;">:</td><td><div>False</div></td></tr><tr><td style="font-weight:bold;vertical-align:top;">local_hosts</td><td style="vertical-align:top;">:</td><td><div><table><tr><td><div>Onkar-PC</div></td></tr><tr><td><div>::ffff:127.0.0.1</div></td></tr><tr><td><div>::1</div></td></tr><tr><td><div>fe80::69f2:3c8e:7a95:7e75%6</div></td></tr><tr><td><div>127.0.0.1</div></td></tr><tr><td><div>192.168.56.1</div></td></tr></table></div></td></tr><tr><td style="font-weight:bold;vertical-align:top;">path_info</td><td style="vertical-align:top;">:</td><td><div>/Image/default/show/2</div></td></tr><tr><td style="font-weight:bold;vertical-align:top;">query_string</td><td style="vertical-align:top;">:</td><td><div></div></td></tr><tr><td style="font-weight:bold;vertical-align:top;">remote_addr</td><td style="vertical-align:top;">:</td><td><div>127.0.0.1</div></td></tr><tr><td style="font-weight:bold;vertical-align:top;">remote_port</td><td style="vertical-align:top;">:</td><td><div>49823</div></td></tr><tr><td style="font-weight:bold;vertical-align:top;">request_method</td><td style="vertical-align:top;">:</td><td><div>GET</div></td></tr><tr><td style="font-weight:bold;vertical-align:top;">request_uri</td><td style="vertical-align:top;">:</td><td><div>/Image/default/show/2</div></td></tr><tr><td style="font-weight:bold;vertical-align:top;">script_name</td><td style="vertical-align:top;">:</td><td><div></div></td></tr><tr><td style="font-weight:bold;vertical-align:top;">server_name</td><td style="vertical-align:top;">:</td><td><div>Onkar-PC</div></td></tr><tr><td style="font-weight:bold;vertical-align:top;">server_port</td><td style="vertical-align:top;">:</td><td><div>8000</div></td></tr><tr><td style="font-weight:bold;vertical-align:top;">server_protocol</td><td style="vertical-align:top;">:</td><td><div>HTTP/1.1</div></td></tr><tr><td style="font-weight:bold;vertical-align:top;">server_software</td><td style="vertical-align:top;">:</td><td><div>Rocket 1.2.6</div></td></tr><tr><td style="font-weight:bold;vertical-align:top;">web2py_path</td><td style="vertical-align:top;">:</td><td><div>C:\\Users\\Onkar\\Desktop\\web2py</div></td></tr><tr><td style="font-weight:bold;vertical-align:top;">web2py_version</td><td style="vertical-align:top;">:</td><td><div>2.14.2-stable+timestamp.2016.03.24.22.47.49</div></td></tr><tr><td style="font-weight:bold;vertical-align:top;">wsgi.errors</td><td style="vertical-align:top;">:</td><td><div>&lt;open file &#x27;&lt;stderr&gt;&#x27;, mode &#x27;w&#x27; at 0x022CD0D0&gt;</div></td></tr><tr><td style="font-weight:bold;vertical-align:top;">wsgi.file_wrapper</td><td style="vertical-align:top;">:</td><td><div>&lt;class wsgiref.util.FileWrapper at 0x025FF308&gt;</div></td></tr><tr><td style="font-weight:bold;vertical-align:top;">wsgi.input</td><td style="vertical-align:top;">:</td><td><div>&lt;socket._fileobject object at 0x085A9430&gt;</div></td></tr><tr><td style="font-weight:bold;vertical-align:top;">wsgi.multiprocess</td><td style="vertical-align:top;">:</td><td><div>False</div></td></tr><tr><td style="font-weight:bold;vertical-align:top;">wsgi.multithread</td><td style="vertical-align:top;">:</td><td><div>True</div></td></tr><tr><td style="font-weight:bold;vertical-align:top;">wsgi.run_once</td><td style="vertical-align:top;">:</td><td><div>False</div></td></tr><tr><td style="font-weight:bold;vertical-align:top;">wsgi.url_scheme</td><td style="vertical-align:top;">:</td><td><div>http</div></td></tr><tr><td style="font-weight:bold;vertical-align:top;">wsgi.version</td><td style="vertical-align:top;">:</td><td><div><table><tr><td><div>1</div></td></tr><tr><td><div>0</div></td></tr></table></div></td></tr><tr><td style="font-weight:bold;vertical-align:top;">wsgi_errors</td><td style="vertical-align:top;">:</td><td><div>&lt;open file &#x27;&lt;stderr&gt;&#x27;, mode &#x27;w&#x27; at 0x022CD0D0&gt;</div></td></tr><tr><td style="font-weight:bold;vertical-align:top;">wsgi_file_wrapper</td><td style="vertical-align:top;">:</td><td><div>&lt;class wsgiref.util.FileWrapper at 0x025FF308&gt;</div></td></tr><tr><td style="font-weight:bold;vertical-align:top;">wsgi_input</td><td style="vertical-align:top;">:</td><td><div>&lt;socket._fileobject object at 0x085A9430&gt;</div></td></tr><tr><td style="font-weight:bold;vertical-align:top;">wsgi_multiprocess</td><td style="vertical-align:top;">:</td><td><div>False</div></td></tr><tr><td style="font-weight:bold;vertical-align:top;">wsgi_multithread</td><td style="vertical-align:top;">:</td><td><div>True</div></td></tr><tr><td style="font-weight:bold;vertical-align:top;">wsgi_run_once</td><td style="vertical-align:top;">:</td><td><div>False</div></td></tr><tr><td style="font-weight:bold;vertical-align:top;">wsgi_url_scheme</td><td style="vertical-align:top;">:</td><td><div>http</div></td></tr><tr><td style="font-weight:bold;vertical-align:top;">wsgi_version</td><td style="vertical-align:top;">:</td><td><div><table><tr><td><div>1</div></td></tr><tr><td><div>0</div></td></tr></table></div></td></tr></table></div></td></tr><tr><td style="font-weight:bold;vertical-align:top;">extension</td><td style="vertical-align:top;">:</td><td><div>html</div></td></tr><tr><td style="font-weight:bold;vertical-align:top;">folder</td><td style="vertical-align:top;">:</td><td><div>C:\\Users\\Onkar\\Desktop\\web2py\\applications\\Image\\</div></td></tr><tr><td style="font-weight:bold;vertical-align:top;">function</td><td style="vertical-align:top;">:</td><td><div>show</div></td></tr><tr><td style="font-weight:bold;vertical-align:top;">global_settings</td><td style="vertical-align:top;">:</td><td><div><table><tr><td style="font-weight:bold;vertical-align:top;">app_folders</td><td style="vertical-align:top;">:</td><td><div>set([&#x27;C:\\\\Users\\\\Onkar\\\\Desktop\\\\web2py\\\\applications\\\\admin\\\\&#x27;, &#x27;C:\\\\Users\\\\Onkar\\\\Desktop\\\\web2py\\\\applications\\\\welcome\\\\&#x27;, &#x27;C:\\\\Users\\\\Onkar\\\\Desktop\\\\web2py\\\\applications\\\\Image\\\\&#x27;])</div></td></tr><tr><td style="font-weight:bold;vertical-align:top;">applications_parent</td><td style="vertical-align:top;">:</td><td><div>C:\\Users\\Onkar\\Desktop\\web2py</div></td></tr><tr><td style="font-weight:bold;vertical-align:top;">cmd_args</td><td style="vertical-align:top;">:</td><td><div><table></table></div></td></tr><tr><td style="font-weight:bold;vertical-align:top;">cmd_options</td><td style="vertical-align:top;">:</td><td><div>&lt;Values at 0x2d11c38: {&#x27;verbose&#x27;: False, &#x27;ip&#x27;: &#x27;127.0.0.1&#x27;, &#x27;debuglevel&#x27;: 30, &#x27;with_scheduler&#x27;: False, &#x27;shutdown_timeout&#x27;: 5, &#x27;taskbar&#x27;: False, &#x27;with_coverage&#x27;: False, &#x27;pid_filename&#x27;: &#x27;httpserver.pid&#x27;, &#x27;maxthreads&#x27;: None, &#x27;softcron&#x27;: False, &#x27;server_name&#x27;: &#x27;Onkar-PC&#x27;, &#x27;bpython&#x27;: False, &#x27;nogui&#x27;: False, &#x27;port&#x27;: 8000, &#x27;print_errors&#x27;: False, &#x27;extcron&#x27;: False, &#x27;runcron&#x27;: False, &#x27;run_system_tests&#x27;: False, &#x27;test&#x27;: None, &#x27;folder&#x27;: &#x27;C:\\\\Users\\\\Onkar\\\\Desktop\\\\web2py&#x27;, &#x27;config&#x27;: &#x27;&#x27;, &#x27;minthreads&#x27;: None, &#x27;shell&#x27;: None, &#x27;run&#x27;: &#x27;&#x27;, &#x27;log_filename&#x27;: &#x27;httpserver.log&#x27;, &#x27;profiler_dir&#x27;: None, &#x27;args&#x27;: [&#x27;&#x27;], &#x27;socket_timeout&#x27;: 5, &#x27;ssl_ca_certificate&#x27;: None, &#x27;scheduler&#x27;: None, &#x27;interfaces&#x27;: None, &#x27;ssl_private_key&#x27;: &#x27;&#x27;, &#x27;gae&#x27;: None, &#x27;password&#x27;: &#x27;******&#x27;, &#x27;request_queue_size&#x27;: 5, &#x27;ssl_certificate&#x27;: &#x27;&#x27;, &#x27;cronjob&#x27;: False, &#x27;numthreads&#x27;: None, &#x27;quiet&#x27;: False, &#x27;import_models&#x27;: False, &#x27;timeout&#x27;: 10, &#x27;plain&#x27;: False, &#x27;nobanner&#x27;: False}&gt;</div></td></tr><tr><td style="font-weight:bold;vertical-align:top;">db_sessions</td><td style="vertical-align:top;">:</td><td><div>set([])</div></td></tr><tr><td style="font-weight:bold;vertical-align:top;">debugging</td><td style="vertical-align:top;">:</td><td><div>True</div></td></tr><tr><td style="font-weight:bold;vertical-align:top;">gluon_parent</td><td style="vertical-align:top;">:</td><td><div>C:\\Users\\Onkar\\Desktop\\web2py</div></td></tr><tr><td style="font-weight:bold;vertical-align:top;">is_jython</td><td style="vertical-align:top;">:</td><td><div>False</div></td></tr><tr><td style="font-weight:bold;vertical-align:top;">is_pypy</td><td style="vertical-align:top;">:</td><td><div>False</div></td></tr><tr><td style="font-weight:bold;vertical-align:top;">is_source</td><td style="vertical-align:top;">:</td><td><div>False</div></td></tr><tr><td style="font-weight:bold;vertical-align:top;">local_hosts</td><td style="vertical-align:top;">:</td><td><div><table><tr><td><div>Onkar-PC</div></td></tr><tr><td><div>::ffff:127.0.0.1</div></td></tr><tr><td><div>::1</div></td></tr><tr><td><div>fe80::69f2:3c8e:7a95:7e75%6</div></td></tr><tr><td><div>127.0.0.1</div></td></tr><tr><td><div>192.168.56.1</div></td></tr></table></div></td></tr><tr><td style="font-weight:bold;vertical-align:top;">web2py_version</td><td style="vertical-align:top;">:</td><td><div>2.14.2-stable+timestamp.2016.03.24.22.47.49</div></td></tr></table></div></td></tr><tr><td style="font-weight:bold;vertical-align:top;">is_https</td><td style="vertical-align:top;">:</td><td><div>False</div></td></tr><tr><td style="font-weight:bold;vertical-align:top;">is_local</td><td style="vertical-align:top;">:</td><td><div>True</div></td></tr><tr><td style="font-weight:bold;vertical-align:top;">is_restful</td><td style="vertical-align:top;">:</td><td><div>False</div></td></tr><tr><td style="font-weight:bold;vertical-align:top;">is_scheduler</td><td style="vertical-align:top;">:</td><td><div>False</div></td></tr><tr><td style="font-weight:bold;vertical-align:top;">is_shell</td><td style="vertical-align:top;">:</td><td><div>False</div></td></tr><tr><td style="font-weight:bold;vertical-align:top;">now</td><td style="vertical-align:top;">:</td><td><div>datetime.datetime(2016, 4, 30, 21, 24, 37, 949000)</div></td></tr><tr><td style="font-weight:bold;vertical-align:top;">raw_args</td><td style="vertical-align:top;">:</td><td><div>2</div></td></tr><tr><td style="font-weight:bold;vertical-align:top;">raw_extension</td><td style="vertical-align:top;">:</td><td><div>None</div></td></tr><tr><td style="font-weight:bold;vertical-align:top;">url</td><td style="vertical-align:top;">:</td><td><div>/Image/default/show/2</div></td></tr><tr><td style="font-weight:bold;vertical-align:top;">utcnow</td><td style="vertical-align:top;">:</td><td><div>datetime.datetime(2016, 4, 30, 15, 54, 37, 949000)</div></td></tr><tr><td style="font-weight:bold;vertical-align:top;">wsgi</td><td style="vertical-align:top;">:</td><td><div>&lt;gluon.main.LazyWSGI object at 0x0869E310&gt;</div></td></tr></table></div>'
tRp58
sS'frames'
p59
(lp60
(dp61
S'file'
p62
S'C:\\Users\\Onkar\\Desktop\\web2py\\gluon\\restricted.py'
p63
sS'dump'
p64
(dp65
S'environment'
p66
S"{'A': <class 'gluon.html.A'>, 'ANY_OF': <class 'gluon.validators.ANY_OF'>, 'ASSIGNJS': <function ASSIGNJS>, 'Auth': <class 'gluon.tools.Auth'>, 'B': <class 'gluon.html.B'>, 'BEAUTIFY': <class 'gluon.html.BEAUTIFY'>, 'BODY': <class 'gluon.html.BODY'>, 'BR': <class 'gluon.html.BR'>, 'BUTTON': <class 'gluon.html.BUTTON'>, 'CAT': <class 'gluon.html.CAT'>, ...}"
p67
sS'ccode'
p68
S'<code object <module> at 08488698, file "C:\\User...plications\\Image\\controllers/default.py", line 1>'
p69
ssS'lnum'
p70
I227
sS'lines'
p71
(dp72
I224
S'            ccode = code'
p73
sI225
S'        else:'
p74
sI226
S'            ccode = compile2(code, layer)'
p75
sI227
S'        exec ccode in environment'
p76
sI228
S'    except HTTP:'
p77
sI229
S'        raise'
p78
sI230
S'    except RestrictedError:'
p79
sI231
S'        # do not encapsulate (obfuscate) the original RestrictedError'
p80
sI222
S'    try:'
p81
sI223
S'        if isinstance(code, types.CodeType):'
p82
ssS'call'
p83
S'(code="import re\\n@auth.requires_login()\\ndef index():\\n  ...kes:\', k)\\n\\nresponse._vars=response._caller(show)\\n", environment={\'A\': <class \'gluon.html.A\'>, \'ANY_OF\': <class \'gluon.validators.ANY_OF\'>, \'ASSIGNJS\': <function ASSIGNJS>, \'Auth\': <class \'gluon.tools.Auth\'>, \'B\': <class \'gluon.html.B\'>, \'BEAUTIFY\': <class \'gluon.html.BEAUTIFY\'>, \'BODY\': <class \'gluon.html.BODY\'>, \'BR\': <class \'gluon.html.BR\'>, \'BUTTON\': <class \'gluon.html.BUTTON\'>, \'CAT\': <class \'gluon.html.CAT\'>, ...}, layer=r\'C:\\Users\\Onkar\\Desktop\\web2py\\applications\\Image\\controllers/default.py\')'
p84
sS'func'
p85
S'restricted'
p86
sa(dp87
g62
S'C:\\Users\\Onkar\\Desktop\\web2py\\applications\\Image\\controllers\\default.py'
p88
sg64
(dp89
sg70
I315
sg71
(dp90
I304
S'    rows=db(db.image.id==session.image).select()'
p91
sI305
S'    for row in rows:'
p92
sI306
S'        k=row.likes'
p93
sI307
S'    if flag==0:'
p94
sI308
S'        response.flash = ("You cannot unlike this!")'
p95
sI309
S'    else:'
p96
sI310
S'        db(db.like.user==auth.user.id)(db.like.like_id==session.image).delete()'
p97
sI311
S'        k=k-1'
p98
sI312
S'        db(db.image.id==session.image).update(likes=k)'
p99
sI313
S"    return DIV('Likes:', k)"
p100
ssg83
S'()'
p101
sg85
S'<module>'
p102
sa(dp103
g62
S'C:\\Users\\Onkar\\Desktop\\web2py\\gluon\\globals.py'
p104
sg64
(dp105
S'self'
p106
S'undefined'
p107
sS'f'
S'<function show>'
p108
ssg70
I417
sg71
(dp109
I416
S'        self._vars = None'
p110
sI417
S'        self._caller = lambda f: f()'
p111
sI418
S'        self._view_environment = None'
p112
sI419
S'        self._custom_commit = None'
p113
sI420
S'        self._custom_rollback = None'
p114
sI421
S"        self.generic_patterns = ['*']"
p115
sI412
S"        self.flash = ''            # used by the default view layout"
p116
sI413
S'        self.meta = Storage()      # used by web2py_ajax.html'
p117
sI414
S'        self.menu = []             # used by the default view layout'
p118
sI415
S'        self.files = []            # used by web2py_ajax.html'
p119
ssg83
S'(f=<function show>)'
p120
sg85
S'<lambda>'
p121
sa(dp122
g62
S'C:\\Users\\Onkar\\Desktop\\web2py\\gluon\\tools.py'
p123
sg64
(dp124
S'action'
p125
S'<function show>'
p126
sS'a'
S'()'
p127
sS'b'
g45
ssg70
I4250
sg71
(dp128
I4245
S'                    flag = condition'
p129
sI4246
S'                if not flag:'
p130
sI4247
S'                    current.session.flash = self.messages.access_denied'
p131
sI4248
S'                    return call_or_redirect('
p132
sI4249
S'                        self.settings.on_failed_authorization)'
p133
sI4250
S'                return action(*a, **b)'
p134
sI4251
S'            f.__doc__ = action.__doc__'
p135
sI4252
S'            f.__name__ = action.__name__'
p136
sI4253
S'            f.__dict__.update(action.__dict__)'
p137
sI4254
S'            return f'
p138
ssg83
S'(*a=(), **b={})'
p139
sg85
S'f'
sa(dp140
g62
S'C:\\Users\\Onkar\\Desktop\\web2py\\applications\\Image\\controllers\\default.py'
p141
sg64
(dp142
S'form'
p143
g107
ssg70
I54
sg71
(dp144
I49
S'    form_rep = SQLFORM(db.report)'
p145
sI50
S'    db.report.report_id.default=report_id'
p146
sI51
S'    db.report.report_by.default = str(auth.user.first_name) +" "+ str(auth.user.last_name)'
p147
sI52
S'    db.report.report_against.default = db( db.image.id == report_id ).select().first().user.username'
p148
sI53
S'    db.report.user.default = auth.user.id'
p149
sI54
S'    if form.process().accepted:'
p150
sI55
S"        redirect(URL('index'))"
p151
sI56
S'    if session.disp==1:'
p152
sI57
S"        response.flash = 'You like it!'"
p153
sI58
S'    elif session.disp==0:'
p154
ssg83
S'()'
p155
sg85
S'show'
p156
sasS'pyver'
p157
S'Python 2.7.9: C:\\Users\\Onkar\\Desktop\\web2py\\web2py.exe (prefix: )'
p158
sS'session'
p159
g57
(S'sp\n\x00\x00<div><table><tr><td style="font-weight:bold;vertical-align:top;">auth</td><td style="vertical-align:top;">:</td><td><div><table><tr><td style="font-weight:bold;vertical-align:top;">expiration</td><td style="vertical-align:top;">:</td><td><div>3600</div></td></tr><tr><td style="font-weight:bold;vertical-align:top;">hmac_key</td><td style="vertical-align:top;">:</td><td><div>4ebc77f1-e586-4a0e-b65f-eda898d3499a</div></td></tr><tr><td style="font-weight:bold;vertical-align:top;">last_visit</td><td style="vertical-align:top;">:</td><td><div>datetime.datetime(2016, 4, 30, 21, 24, 37, 949000)</div></td></tr><tr><td style="font-weight:bold;vertical-align:top;">remember_me</td><td style="vertical-align:top;">:</td><td><div>False</div></td></tr><tr><td style="font-weight:bold;vertical-align:top;">user</td><td style="vertical-align:top;">:</td><td><div><table><tr><td style="font-weight:bold;vertical-align:top;">email</td><td style="vertical-align:top;">:</td><td><div>onkar_verma@g.com</div></td></tr><tr><td style="font-weight:bold;vertical-align:top;">first_name</td><td style="vertical-align:top;">:</td><td><div>onkar</div></td></tr><tr><td style="font-weight:bold;vertical-align:top;">id</td><td style="vertical-align:top;">:</td><td><div>1L</div></td></tr><tr><td style="font-weight:bold;vertical-align:top;">last_name</td><td style="vertical-align:top;">:</td><td><div>v</div></td></tr><tr><td style="font-weight:bold;vertical-align:top;">registration_id</td><td style="vertical-align:top;">:</td><td><div></div></td></tr><tr><td style="font-weight:bold;vertical-align:top;">registration_key</td><td style="vertical-align:top;">:</td><td><div></div></td></tr><tr><td style="font-weight:bold;vertical-align:top;">reset_password_key</td><td style="vertical-align:top;">:</td><td><div></div></td></tr><tr><td style="font-weight:bold;vertical-align:top;">username</td><td style="vertical-align:top;">:</td><td><div>onkar_verma</div></td></tr></table></div></td></tr><tr><td style="font-weight:bold;vertical-align:top;">user_groups</td><td style="vertical-align:top;">:</td><td><div><table><tr><td style="font-weight:bold;vertical-align:top;">1</td><td style="vertical-align:top;">:</td><td><div>user_1</div></td></tr></table></div></td></tr></table></div></td></tr><tr><td style="font-weight:bold;vertical-align:top;">counter</td><td style="vertical-align:top;">:</td><td><div>0</div></td></tr><tr><td style="font-weight:bold;vertical-align:top;">flash</td><td style="vertical-align:top;">:</td><td><div>None</div></td></tr><tr><td style="font-weight:bold;vertical-align:top;">image</td><td style="vertical-align:top;">:</td><td><div>2</div></td></tr></table></div>'
tRp160
sS'etype'
p161
S"<type 'exceptions.NameError'>"
p162
sS'date'
p163
S'Sat Apr 30 21:24:38 2016'
p164
sS'response'
p165
g57
(S'sTA\x00\x00<div><table><tr><td style="font-weight:bold;vertical-align:top;">body</td><td style="vertical-align:top;">:</td><td><div>&lt;cStringIO.StringO object at 0x08ABE620&gt;</div></td></tr><tr><td style="font-weight:bold;vertical-align:top;">cookies</td><td style="vertical-align:top;">:</td><td><div><table><tr><td style="font-weight:bold;vertical-align:top;">session_id_image</td><td style="vertical-align:top;">:</td><td><div>127.0.0.1-9a1bd3c0-62a2-4227-a3f5-ce9dddc2691b<table><tr><td style="font-weight:bold;vertical-align:top;">comment</td><td style="vertical-align:top;">:</td><td><div></div></td></tr><tr><td style="font-weight:bold;vertical-align:top;">domain</td><td style="vertical-align:top;">:</td><td><div></div></td></tr><tr><td style="font-weight:bold;vertical-align:top;">expires</td><td style="vertical-align:top;">:</td><td><div></div></td></tr><tr><td style="font-weight:bold;vertical-align:top;">httponly</td><td style="vertical-align:top;">:</td><td><div></div></td></tr><tr><td style="font-weight:bold;vertical-align:top;">max-age</td><td style="vertical-align:top;">:</td><td><div></div></td></tr><tr><td style="font-weight:bold;vertical-align:top;">path</td><td style="vertical-align:top;">:</td><td><div>/</div></td></tr><tr><td style="font-weight:bold;vertical-align:top;">secure</td><td style="vertical-align:top;">:</td><td><div></div></td></tr><tr><td style="font-weight:bold;vertical-align:top;">version</td><td style="vertical-align:top;">:</td><td><div></div></td></tr></table></div></td></tr></table></div></td></tr><tr><td style="font-weight:bold;vertical-align:top;">delimiters</td><td style="vertical-align:top;">:</td><td><div><table><tr><td><div>{{</div></td></tr><tr><td><div>}}</div></td></tr></table></div></td></tr><tr><td style="font-weight:bold;vertical-align:top;">files</td><td style="vertical-align:top;">:</td><td><div><table></table></div></td></tr><tr><td style="font-weight:bold;vertical-align:top;">flash</td><td style="vertical-align:top;">:</td><td><div></div></td></tr><tr><td style="font-weight:bold;vertical-align:top;">form_label_separator</td><td style="vertical-align:top;">:</td><td><div>: </div></td></tr><tr><td style="font-weight:bold;vertical-align:top;">formstyle</td><td style="vertical-align:top;">:</td><td><div>table3cols</div></td></tr><tr><td style="font-weight:bold;vertical-align:top;">generic_patterns</td><td style="vertical-align:top;">:</td><td><div><table><tr><td><div>*</div></td></tr></table></div></td></tr><tr><td style="font-weight:bold;vertical-align:top;">google_analytics_id</td><td style="vertical-align:top;">:</td><td><div>None</div></td></tr><tr><td style="font-weight:bold;vertical-align:top;">headers</td><td style="vertical-align:top;">:</td><td><div><table><tr><td style="font-weight:bold;vertical-align:top;">X-Powered-By</td><td style="vertical-align:top;">:</td><td><div>web2py</div></td></tr></table></div></td></tr><tr><td style="font-weight:bold;vertical-align:top;">logo</td><td style="vertical-align:top;">:</td><td><div><a class="navbar-brand" href="/Image/default/index" id="web2py-logo"><b>web<span>2</span>py</b>&trade;&nbsp;</a></div></td></tr><tr><td style="font-weight:bold;vertical-align:top;">menu</td><td style="vertical-align:top;">:</td><td><div><table><tr><td><div><table><tr><td><div>Home</div></td></tr><tr><td><div>False</div></td></tr><tr><td><div>/Image/default/index</div></td></tr><tr><td><div><table></table></div></td></tr></table></div></td></tr><tr><td><div><table><tr><td><div>New</div></td></tr><tr><td><div>False</div></td></tr><tr><td><div>/Image/default/upload</div></td></tr></table></div></td></tr><tr><td><div><table><tr><td><div>My Profile</div></td></tr><tr><td><div>False</div></td></tr><tr><td><div>/Image/default/profile/1</div></td></tr></table></div></td></tr><tr><td><div><table><tr><td><div>Search</div></td></tr><tr><td><div>False</div></td></tr><tr><td><div>/Image/default/search_result</div></td></tr></table></div></td></tr><tr><td><div><table><tr><td><div>reports</div></td></tr><tr><td><div>False</div></td></tr><tr><td><div>/Image/default/rep</div></td></tr></table></div></td></tr><tr><td><div><table><tr><td><div>My Sites</div></td></tr><tr><td><div>False</div></td></tr><tr><td><div>/admin/default/site</div></td></tr></table></div></td></tr><tr><td><div><table><tr><td><div>This App</div></td></tr><tr><td><div>False</div></td></tr><tr><td><div>#</div></td></tr><tr><td><div><table><tr><td><div><table><tr><td><div>Design</div></td></tr><tr><td><div>False</div></td></tr><tr><td><div>/admin/default/design/Image</div></td></tr></table></div></td></tr><tr><td><div><li class="divider"></li></div></td></tr><tr><td><div><table><tr><td><div>Controller</div></td></tr><tr><td><div>False</div></td></tr><tr><td><div>/admin/default/edit/Image/controllers/default.py</div></td></tr></table></div></td></tr><tr><td><div><table><tr><td><div>View</div></td></tr><tr><td><div>False</div></td></tr><tr><td><div>/admin/default/edit/Image/views/default/show.html</div></td></tr></table></div></td></tr><tr><td><div><table><tr><td><div>DB Model</div></td></tr><tr><td><div>False</div></td></tr><tr><td><div>/admin/default/edit/Image/models/db.py</div></td></tr></table></div></td></tr><tr><td><div><table><tr><td><div>Menu Model</div></td></tr><tr><td><div>False</div></td></tr><tr><td><div>/admin/default/edit/Image/models/menu.py</div></td></tr></table></div></td></tr><tr><td><div><table><tr><td><div>Config.ini</div></td></tr><tr><td><div>False</div></td></tr><tr><td><div>/admin/default/edit/Image/private/appconfig.ini</div></td></tr></table></div></td></tr><tr><td><div><table><tr><td><div>Layout</div></td></tr><tr><td><div>False</div></td></tr><tr><td><div>/admin/default/edit/Image/views/layout.html</div></td></tr></table></div></td></tr><tr><td><div><table><tr><td><div>Stylesheet</div></td></tr><tr><td><div>False</div></td></tr><tr><td><div>/admin/default/edit/Image/static/css/web2py-bootstrap3.css</div></td></tr></table></div></td></tr><tr><td><div><table><tr><td><div>Database</div></td></tr><tr><td><div>False</div></td></tr><tr><td><div>/Image/appadmin/index</div></td></tr></table></div></td></tr><tr><td><div><table><tr><td><div>Errors</div></td></tr><tr><td><div>False</div></td></tr><tr><td><div>/admin/default/errors/Image</div></td></tr></table></div></td></tr><tr><td><div><table><tr><td><div>About</div></td></tr><tr><td><div>False</div></td></tr><tr><td><div>/admin/default/about/Image</div></td></tr></table></div></td></tr></table></div></td></tr></table></div></td></tr><tr><td><div><table><tr><td><div>web2py.com</div></td></tr><tr><td><div>False</div></td></tr><tr><td><div>#</div></td></tr><tr><td><div><table><tr><td><div><table><tr><td><div>Download</div></td></tr><tr><td><div>False</div></td></tr><tr><td><div>http://www.web2py.com/examples/default/download</div></td></tr></table></div></td></tr><tr><td><div><table><tr><td><div>Support</div></td></tr><tr><td><div>False</div></td></tr><tr><td><div>http://www.web2py.com/examples/default/support</div></td></tr></table></div></td></tr><tr><td><div><table><tr><td><div>Demo</div></td></tr><tr><td><div>False</div></td></tr><tr><td><div>http://web2py.com/demo_admin</div></td></tr></table></div></td></tr><tr><td><div><table><tr><td><div>Quick Examples</div></td></tr><tr><td><div>False</div></td></tr><tr><td><div>http://web2py.com/examples/default/examples</div></td></tr></table></div></td></tr><tr><td><div><table><tr><td><div>FAQ</div></td></tr><tr><td><div>False</div></td></tr><tr><td><div>http://web2py.com/AlterEgo</div></td></tr></table></div></td></tr><tr><td><div><table><tr><td><div>Videos</div></td></tr><tr><td><div>False</div></td></tr><tr><td><div>http://www.web2py.com/examples/default/videos/</div></td></tr></table></div></td></tr><tr><td><div><table><tr><td><div>Free Applications</div></td></tr><tr><td><div>False</div></td></tr><tr><td><div>http://web2py.com/appliances</div></td></tr></table></div></td></tr><tr><td><div><table><tr><td><div>Plugins</div></td></tr><tr><td><div>False</div></td></tr><tr><td><div>http://web2py.com/plugins</div></td></tr></table></div></td></tr><tr><td><div><table><tr><td><div>Recipes</div></td></tr><tr><td><div>False</div></td></tr><tr><td><div>http://web2pyslices.com/</div></td></tr></table></div></td></tr></table></div></td></tr></table></div></td></tr><tr><td><div><table><tr><td><div>Documentation</div></td></tr><tr><td><div>False</div></td></tr><tr><td><div>#</div></td></tr><tr><td><div><table><tr><td><div><table><tr><td><div>Online book</div></td></tr><tr><td><div>False</div></td></tr><tr><td><div>http://www.web2py.com/book</div></td></tr></table></div></td></tr><tr><td><div><li class="divider"></li></div></td></tr><tr><td><div><table><tr><td><div>Preface</div></td></tr><tr><td><div>False</div></td></tr><tr><td><div>http://www.web2py.com/book/default/chapter/00</div></td></tr></table></div></td></tr><tr><td><div><table><tr><td><div>Introduction</div></td></tr><tr><td><div>False</div></td></tr><tr><td><div>http://www.web2py.com/book/default/chapter/01</div></td></tr></table></div></td></tr><tr><td><div><table><tr><td><div>Python</div></td></tr><tr><td><div>False</div></td></tr><tr><td><div>http://www.web2py.com/book/default/chapter/02</div></td></tr></table></div></td></tr><tr><td><div><table><tr><td><div>Overview</div></td></tr><tr><td><div>False</div></td></tr><tr><td><div>http://www.web2py.com/book/default/chapter/03</div></td></tr></table></div></td></tr><tr><td><div><table><tr><td><div>The Core</div></td></tr><tr><td><div>False</div></td></tr><tr><td><div>http://www.web2py.com/book/default/chapter/04</div></td></tr></table></div></td></tr><tr><td><div><table><tr><td><div>The Views</div></td></tr><tr><td><div>False</div></td></tr><tr><td><div>http://www.web2py.com/book/default/chapter/05</div></td></tr></table></div></td></tr><tr><td><div><table><tr><td><div>Database</div></td></tr><tr><td><div>False</div></td></tr><tr><td><div>http://www.web2py.com/book/default/chapter/06</div></td></tr></table></div></td></tr><tr><td><div><table><tr><td><div>Forms and Validators</div></td></tr><tr><td><div>False</div></td></tr><tr><td><div>http://www.web2py.com/book/default/chapter/07</div></td></tr></table></div></td></tr><tr><td><div><table><tr><td><div>Email and SMS</div></td></tr><tr><td><div>False</div></td></tr><tr><td><div>http://www.web2py.com/book/default/chapter/08</div></td></tr></table></div></td></tr><tr><td><div><table><tr><td><div>Access Control</div></td></tr><tr><td><div>False</div></td></tr><tr><td><div>http://www.web2py.com/book/default/chapter/09</div></td></tr></table></div></td></tr><tr><td><div><table><tr><td><div>Services</div></td></tr><tr><td><div>False</div></td></tr><tr><td><div>http://www.web2py.com/book/default/chapter/10</div></td></tr></table></div></td></tr><tr><td><div><table><tr><td><div>Ajax Recipes</div></td></tr><tr><td><div>False</div></td></tr><tr><td><div>http://www.web2py.com/book/default/chapter/11</div></td></tr></table></div></td></tr><tr><td><div><table><tr><td><div>Components and Plugins</div></td></tr><tr><td><div>False</div></td></tr><tr><td><div>http://www.web2py.com/book/default/chapter/12</div></td></tr></table></div></td></tr><tr><td><div><table><tr><td><div>Deployment Recipes</div></td></tr><tr><td><div>False</div></td></tr><tr><td><div>http://www.web2py.com/book/default/chapter/13</div></td></tr></table></div></td></tr><tr><td><div><table><tr><td><div>Other Recipes</div></td></tr><tr><td><div>False</div></td></tr><tr><td><div>http://www.web2py.com/book/default/chapter/14</div></td></tr></table></div></td></tr><tr><td><div><table><tr><td><div>Helping web2py</div></td></tr><tr><td><div>False</div></td></tr><tr><td><div>http://www.web2py.com/book/default/chapter/15</div></td></tr></table></div></td></tr><tr><td><div><table><tr><td><div>Buy web2py\'s book</div></td></tr><tr><td><div>False</div></td></tr><tr><td><div>http://stores.lulu.com/web2py</div></td></tr></table></div></td></tr></table></div></td></tr></table></div></td></tr><tr><td><div><table><tr><td><div>Community</div></td></tr><tr><td><div>False</div></td></tr><tr><td><div>None</div></td></tr><tr><td><div><table><tr><td><div><table><tr><td><div>Groups</div></td></tr><tr><td><div>False</div></td></tr><tr><td><div>http://www.web2py.com/examples/default/usergroups</div></td></tr></table></div></td></tr><tr><td><div><table><tr><td><div>Twitter</div></td></tr><tr><td><div>False</div></td></tr><tr><td><div>http://twitter.com/web2py</div></td></tr></table></div></td></tr><tr><td><div><table><tr><td><div>Live Chat</div></td></tr><tr><td><div>False</div></td></tr><tr><td><div>http://webchat.freenode.net/?channels=web2py</div></td></tr></table></div></td></tr></table></div></td></tr></table></div></td></tr></table></div></td></tr><tr><td style="font-weight:bold;vertical-align:top;">meta</td><td style="vertical-align:top;">:</td><td><div><table><tr><td style="font-weight:bold;vertical-align:top;">author</td><td style="vertical-align:top;">:</td><td><div>Onkar Verma</div></td></tr><tr><td style="font-weight:bold;vertical-align:top;">description</td><td style="vertical-align:top;">:</td><td><div>Recepie App</div></td></tr><tr><td style="font-weight:bold;vertical-align:top;">generator</td><td style="vertical-align:top;">:</td><td><div>Web2py Web Framework</div></td></tr><tr><td style="font-weight:bold;vertical-align:top;">keywords</td><td style="vertical-align:top;">:</td><td><div>web2py, python, framework</div></td></tr></table></div></td></tr><tr><td style="font-weight:bold;vertical-align:top;">models_to_run</td><td style="vertical-align:top;">:</td><td><div><table><tr><td><div>^\\w+\\.py$</div></td></tr><tr><td><div>^default/\\w+\\.py$</div></td></tr><tr><td><div>^default/show/\\w+\\.py$</div></td></tr></table></div></td></tr><tr><td style="font-weight:bold;vertical-align:top;">postprocessing</td><td style="vertical-align:top;">:</td><td><div><table></table></div></td></tr><tr><td style="font-weight:bold;vertical-align:top;">session_client</td><td style="vertical-align:top;">:</td><td><div>127.0.0.1</div></td></tr><tr><td style="font-weight:bold;vertical-align:top;">session_cookie_compression_level</td><td style="vertical-align:top;">:</td><td><div>None</div></td></tr><tr><td style="font-weight:bold;vertical-align:top;">session_cookie_expires</td><td style="vertical-align:top;">:</td><td><div>None</div></td></tr><tr><td style="font-weight:bold;vertical-align:top;">session_data_name</td><td style="vertical-align:top;">:</td><td><div>session_data_image</div></td></tr><tr><td style="font-weight:bold;vertical-align:top;">session_file</td><td style="vertical-align:top;">:</td><td><div>&lt;open file &#x27;C:\\\\Users\\\\Onkar\\\\Desktop\\\\web2py\\\\applications\\\\Image\\\\sessions\\\\01d\\\\0bb\\\\127.0.0.1-9a1bd3c0-62a2-4227-a3f5-ce9dddc2691b&#x27;, mode &#x27;rb+&#x27; at 0x084BFF98&gt;</div></td></tr><tr><td style="font-weight:bold;vertical-align:top;">session_filename</td><td style="vertical-align:top;">:</td><td><div>C:\\Users\\Onkar\\Desktop\\web2py\\applications\\Image\\sessions\\127.0.0.1-9a1bd3c0-62a2-4227-a3f5-ce9dddc2691b</div></td></tr><tr><td style="font-weight:bold;vertical-align:top;">session_hash</td><td style="vertical-align:top;">:</td><td><div>c26e3f15ae34ade16146585c4baa6b21</div></td></tr><tr><td style="font-weight:bold;vertical-align:top;">session_id</td><td style="vertical-align:top;">:</td><td><div>127.0.0.1-9a1bd3c0-62a2-4227-a3f5-ce9dddc2691b</div></td></tr><tr><td style="font-weight:bold;vertical-align:top;">session_id_name</td><td style="vertical-align:top;">:</td><td><div>session_id_image</div></td></tr><tr><td style="font-weight:bold;vertical-align:top;">session_locked</td><td style="vertical-align:top;">:</td><td><div>True</div></td></tr><tr><td style="font-weight:bold;vertical-align:top;">session_masterapp</td><td style="vertical-align:top;">:</td><td><div>Image</div></td></tr><tr><td style="font-weight:bold;vertical-align:top;">session_new</td><td style="vertical-align:top;">:</td><td><div>False</div></td></tr><tr><td style="font-weight:bold;vertical-align:top;">session_storage_type</td><td style="vertical-align:top;">:</td><td><div>file</div></td></tr><tr><td style="font-weight:bold;vertical-align:top;">status</td><td style="vertical-align:top;">:</td><td><div>200</div></td></tr><tr><td style="font-weight:bold;vertical-align:top;">subtitle</td><td style="vertical-align:top;">:</td><td><div></div></td></tr><tr><td style="font-weight:bold;vertical-align:top;">title</td><td style="vertical-align:top;">:</td><td><div>Image</div></td></tr><tr><td style="font-weight:bold;vertical-align:top;">view</td><td style="vertical-align:top;">:</td><td><div>default/show.html</div></td></tr></table></div>'
tRp166
sS'locals'
p167
(dp168
S'form_rep'
p169
S'<gluon.sqlhtml.SQLFORM object>'
p170
sS'report_id'
p171
S'2'
sS'flag'
p172
S'0'
sS'image'
p173
S"<Row {'username': 'onkar_verma', 'modified_by': ...= 2)>, 'email': 'onkar_verma@g.com', 'user': 1L}>"
p174
sS'results'
p175
S'<Rows (0)>'
p176
sssS'traceback'
p177
S'Traceback (most recent call last):\n  File "C:\\Users\\Onkar\\Desktop\\web2py\\gluon\\restricted.py", line 227, in restricted\n    exec ccode in environment\n  File "C:\\Users\\Onkar\\Desktop\\web2py\\applications\\Image\\controllers/default.py", line 315, in <module>\n  File "C:\\Users\\Onkar\\Desktop\\web2py\\gluon\\globals.py", line 417, in <lambda>\n    self._caller = lambda f: f()\n  File "C:\\Users\\Onkar\\Desktop\\web2py\\gluon\\tools.py", line 4250, in f\n    return action(*a, **b)\n  File "C:\\Users\\Onkar\\Desktop\\web2py\\applications\\Image\\controllers/default.py", line 54, in show\n    if form.process().accepted:\nNameError: global name \'form\' is not defined\n'
p178
s.